target datalayout = "e-m:e-p270:32:32-p271:32:32-p272:64:64-i64:64-i128:128-f80:128-n8:16:32:64-S128"
target triple = "x86_64-unknown-linux-gnu"

%"class.rocksdb::IOStatus" = type { %"class.rocksdb::Status" }
%"class.rocksdb::Status" = type { i8, i8, i8, i8, i8, i8, %"class.std::unique_ptr" }
%"class.std::unique_ptr" = type { %"struct.std::__uniq_ptr_data" }
%"struct.std::__uniq_ptr_data" = type { %"class.std::__uniq_ptr_impl" }
%"class.std::__uniq_ptr_impl" = type { %"class.std::tuple" }
%"class.std::tuple" = type { %"struct.std::_Tuple_impl" }
%"struct.std::_Tuple_impl" = type { %"struct.std::_Head_base.4" }
%"struct.std::_Head_base.4" = type { ptr }

; Function Attrs: mustprogress uwtable
define internal void @_ZNK7rocksdb12_GLOBAL__N_126BackupEngineImplThreadSafe25RestoreDBFromLatestBackupERKNS_14RestoreOptionsERKNSt7__cxx1112basic_stringIcSt11char_traitsIcESaIcEEESC_(ptr noalias sret(%"class.rocksdb::IOStatus") align 8 %agg.result, ptr noundef nonnull align 8 dereferenceable(896) %this, ptr noundef nonnull align 8 dereferenceable(16) %options, ptr noundef nonnull align 8 dereferenceable(32) %db_dir, ptr noundef nonnull align 8 dereferenceable(32) %wal_dir) unnamed_addr #0 align 2 {
entry:
  %result.ptr = alloca ptr, align 8
  %this.addr = alloca ptr, align 8
  %options.addr = alloca ptr, align 8
  %db_dir.addr = alloca ptr, align 8
  %wal_dir.addr = alloca ptr, align 8
  store ptr %agg.result, ptr %result.ptr, align 8
  store ptr %this, ptr %this.addr, align 8
  store ptr %options, ptr %options.addr, align 8
  store ptr %db_dir, ptr %db_dir.addr, align 8
  store ptr %wal_dir, ptr %wal_dir.addr, align 8
  %this1 = load ptr, ptr %this.addr, align 8
  %0 = load ptr, ptr %options.addr, align 8
  %1 = load ptr, ptr %db_dir.addr, align 8
  %2 = load ptr, ptr %wal_dir.addr, align 8
  %vtable = load ptr, ptr %this1, align 8
  %vfn = getelementptr inbounds ptr, ptr %vtable, i64 6
  %3 = load ptr, ptr %vfn, align 8
  call void %3(ptr sret(%"class.rocksdb::IOStatus") align 8 %agg.result, ptr noundef nonnull align 8 dereferenceable(896) %this1, ptr noundef nonnull align 8 dereferenceable(16) %0, i32 noundef -2, ptr noundef nonnull align 8 dereferenceable(32) %1, ptr noundef nonnull align 8 dereferenceable(32) %2)
  ret void
}

; Function Attrs: uwtable
define internal void @_ZThn16_NK7rocksdb12_GLOBAL__N_126BackupEngineImplThreadSafe25RestoreDBFromLatestBackupERKNS_14RestoreOptionsERKNSt7__cxx1112basic_stringIcSt11char_traitsIcESaIcEEESC_(ptr noalias sret(%"class.rocksdb::IOStatus") align 8 %agg.result, ptr noundef %this, ptr noundef nonnull align 8 dereferenceable(16) %options, ptr noundef nonnull align 8 dereferenceable(32) %db_dir, ptr noundef nonnull align 8 dereferenceable(32) %wal_dir) unnamed_addr #2 align 2 {
entry:
  %result.ptr = alloca ptr, align 8
  %this.addr = alloca ptr, align 8
  %options.addr = alloca ptr, align 8
  %db_dir.addr = alloca ptr, align 8
  %wal_dir.addr = alloca ptr, align 8
  store ptr %agg.result, ptr %result.ptr, align 8
  store ptr %this, ptr %this.addr, align 8
  store ptr %options, ptr %options.addr, align 8
  store ptr %db_dir, ptr %db_dir.addr, align 8
  store ptr %wal_dir, ptr %wal_dir.addr, align 8
  %this1 = load ptr, ptr %this.addr, align 8
  %0 = getelementptr inbounds i8, ptr %this1, i64 -16
  %1 = load ptr, ptr %options.addr, align 8
  %2 = load ptr, ptr %db_dir.addr, align 8
  %3 = load ptr, ptr %wal_dir.addr, align 8
  tail call void @_ZNK7rocksdb12_GLOBAL__N_126BackupEngineImplThreadSafe25RestoreDBFromLatestBackupERKNS_14RestoreOptionsERKNSt7__cxx1112basic_stringIcSt11char_traitsIcESaIcEEESC_(ptr sret(%"class.rocksdb::IOStatus") align 8 %agg.result, ptr noundef nonnull align 8 dereferenceable(896) %0, ptr noundef nonnull align 8 dereferenceable(16) %1, ptr noundef nonnull align 8 dereferenceable(32) %2, ptr noundef nonnull align 8 dereferenceable(32) %3)
  ret void
}