; Function Attrs: uwtable
define internal void @_ZThn16_NK7rocksdb12_GLOBAL__N_126BackupEngineImplThreadSafe25RestoreDBFromLatestBackupERKNS_14RestoreOptionsERKNSt7__cxx1112basic_stringIcSt11char_traitsIcESaIcEEESC_(ptr noalias sret(%"class.rocksdb::IOStatus") align 8 %agg.result, ptr noundef %this, ptr noundef nonnull align 8 dereferenceable(16) %options, ptr noundef nonnull align 8 dereferenceable(32) %db_dir, ptr noundef nonnull align 8 dereferenceable(32) %wal_dir) unnamed_addr #14 align 2 {
entry:
  %0 = getelementptr inbounds i8, ptr %this, i64 -16
  %vtable.i = load ptr, ptr %0, align 8, !noalias !65
  %vfn.i = getelementptr inbounds i8, ptr %vtable.i, i64 48
  %1 = load ptr, ptr %vfn.i, align 8, !noalias !65
  tail call void %1(ptr sret(%"class.rocksdb::IOStatus") align 8 %agg.result, ptr noundef nonnull align 8 dereferenceable(896) %0, ptr noundef nonnull align 8 dereferenceable(16) %options, i32 noundef -2, ptr noundef nonnull align 8 dereferenceable(32) %db_dir, ptr noundef nonnull align 8 dereferenceable(32) %wal_dir)
  ret void
}